target datalayout = "e-m:e-p270:32:32-p271:32:32-p272:64:64-i64:64-i128:128-f80:128-n8:16:32:64-S128"
target triple = "x86_64-pc-linux-gnu"

; Function Attrs: nounwind uwtable
define dso_local ptr @zend_get_opcode_name(i8 noundef zeroext %0) #0 {
  %2 = alloca ptr, align 8
  %3 = alloca i8, align 1
  store i8 %0, ptr %3, align 1, !tbaa !4
  %4 = load i8, ptr %3, align 1, !tbaa !4
  %5 = zext i8 %4 to i32
  %6 = icmp sgt i32 %5, 209
  %7 = xor i1 %6, true
  %8 = xor i1 %7, true
  %9 = zext i1 %8 to i32
  %10 = sext i32 %9 to i64
  %11 = call i64 @llvm.expect.i64(i64 %10, i64 0)
  %12 = icmp ne i64 %11, 0
  br i1 %12, label %13, label %14

13:                                               ; preds = %1
  store ptr null, ptr %2, align 8
  br label %19

14:                                               ; preds = %1
  %15 = load i8, ptr %3, align 1, !tbaa !4
  %16 = zext i8 %15 to i64
  %17 = getelementptr inbounds nuw [210 x ptr], ptr @zend_vm_opcodes_names, i64 0, i64 %16
  %18 = load ptr, ptr %17, align 8, !tbaa !7
  store ptr %18, ptr %2, align 8
  br label %19

19:                                               ; preds = %14, %13
  %20 = load ptr, ptr %2, align 8
  ret ptr %20
}