; Function Attrs: mustprogress nofree norecurse nosync nounwind willreturn memory(none) uwtable
define dso_local ptr @zend_get_opcode_name(i8 noundef zeroext %0) local_unnamed_addr #0 {
  %2 = icmp ugt i8 %0, -47
  br i1 %2, label %7, label %3, !prof !4

3:                                                ; preds = %1
  %4 = zext i8 %0 to i64
  %5 = getelementptr inbounds nuw [210 x ptr], ptr @zend_vm_opcodes_names, i64 0, i64 %4
  %6 = load ptr, ptr %5, align 8, !tbaa !5
  br label %7

7:                                                ; preds = %1, %3
  %.0 = phi ptr [ %6, %3 ], [ null, %1 ]
  ret ptr %.0
}